target datalayout = "e-m:e-p270:32:32-p271:32:32-p272:64:64-i64:64-i128:128-f80:128-n8:16:32:64-S128"
target triple = "x86_64-pc-linux-gnu"

%struct.ZSTD_inBuffer_s = type { ptr, i64, i64 }
%"class.rocksdb::ZSTDStreamingCompress" = type { %"class.rocksdb::StreamingCompress", ptr, %struct.ZSTD_inBuffer_s }
%"class.rocksdb::StreamingCompress" = type { ptr, i8, [7 x i8], %"struct.rocksdb::CompressionOptions", i32, i64 }
%"struct.rocksdb::CompressionOptions" = type <{ i32, i32, i32, i32, i32, i32, i8, [7 x i8], i64, i8, [3 x i8], i32, i8, [7 x i8] }>

@_ZTVN7rocksdb17StreamingCompressE = linkonce_odr unnamed_addr constant { [6 x ptr] } { [6 x ptr] [ptr null, ptr null, ptr @_ZN7rocksdb17StreamingCompressD2Ev, ptr @_ZN7rocksdb17StreamingCompressD0Ev, ptr @__cxa_pure_virtual, ptr @__cxa_pure_virtual] }, comdat, align 8

; Function Attrs: mustprogress nounwind uwtable
define linkonce_odr void @_ZN7rocksdb17StreamingCompressD2Ev(ptr noundef nonnull align 8 dereferenceable(88) %0) unnamed_addr #8 comdat align 2 {
  %2 = alloca ptr, align 8
  store ptr %0, ptr %2, align 8, !tbaa !50
  ret void
}

; Function Attrs: mustprogress nounwind uwtable
define linkonce_odr void @_ZN7rocksdb17StreamingCompressC2ENS_15CompressionTypeERKNS_18CompressionOptionsEjm(ptr noundef nonnull align 8 dereferenceable(88) %0, i8 noundef zeroext %1, ptr noundef nonnull align 8 dereferenceable(49) %2, i32 noundef %3, i64 noundef %4) unnamed_addr #8 comdat align 2 {
  %6 = alloca ptr, align 8
  %7 = alloca i8, align 1
  %8 = alloca ptr, align 8
  %9 = alloca i32, align 4
  %10 = alloca i64, align 8
  store ptr %0, ptr %6, align 8, !tbaa !50
  store i8 %1, ptr %7, align 1, !tbaa !4
  store ptr %2, ptr %8, align 8, !tbaa !8
  store i32 %3, ptr %9, align 4, !tbaa !11
  store i64 %4, ptr %10, align 8, !tbaa !13
  %11 = load ptr, ptr %6, align 8
  store ptr getelementptr inbounds inrange(-16, 32) ({ [6 x ptr] }, ptr @_ZTVN7rocksdb17StreamingCompressE, i32 0, i32 0, i32 2), ptr %11, align 8, !tbaa !17
  %12 = getelementptr inbounds nuw %"class.rocksdb::StreamingCompress", ptr %11, i32 0, i32 1
  %13 = load i8, ptr %7, align 1, !tbaa !4
  store i8 %13, ptr %12, align 8, !tbaa !52
  %14 = getelementptr inbounds nuw %"class.rocksdb::StreamingCompress", ptr %11, i32 0, i32 3
  %15 = load ptr, ptr %8, align 8, !tbaa !8
  call void @llvm.memcpy.p0.p0.i64(ptr align 8 %14, ptr align 8 %15, i64 56, i1 false), !tbaa.struct !53
  %16 = getelementptr inbounds nuw %"class.rocksdb::StreamingCompress", ptr %11, i32 0, i32 4
  %17 = load i32, ptr %9, align 4, !tbaa !11
  store i32 %17, ptr %16, align 8, !tbaa !55
  %18 = getelementptr inbounds nuw %"class.rocksdb::StreamingCompress", ptr %11, i32 0, i32 5
  %19 = load i64, ptr %10, align 8, !tbaa !13
  store i64 %19, ptr %18, align 8, !tbaa !44
  ret void
}

; Function Attrs: mustprogress uwtable
define linkonce_odr void @_ZN7rocksdb21ZSTDStreamingCompressC2ERKNS_18CompressionOptionsEjm(ptr noundef nonnull align 8 dereferenceable(120) %0, ptr noundef nonnull align 8 dereferenceable(49) %1, i32 noundef %2, i64 noundef %3) unnamed_addr #0 comdat align 2 personality ptr @__gxx_personality_v0 {
  %5 = alloca ptr, align 8
  %6 = alloca ptr, align 8
  %7 = alloca i32, align 4
  %8 = alloca i64, align 8
  %9 = alloca ptr, align 8
  %10 = alloca i32, align 4
  %11 = alloca %struct.ZSTD_inBuffer_s, align 8
  store ptr %0, ptr %5, align 8, !tbaa !15
  store ptr %1, ptr %6, align 8, !tbaa !8
  store i32 %2, ptr %7, align 4, !tbaa !11
  store i64 %3, ptr %8, align 8, !tbaa !13
  %12 = load ptr, ptr %5, align 8
  %13 = load ptr, ptr %6, align 8, !tbaa !8
  %14 = load i32, ptr %7, align 4, !tbaa !11
  %15 = load i64, ptr %8, align 8, !tbaa !13
  call void @_ZN7rocksdb17StreamingCompressC2ENS_15CompressionTypeERKNS_18CompressionOptionsEjm(ptr noundef nonnull align 8 dereferenceable(88) %12, i8 noundef zeroext 7, ptr noundef nonnull align 8 dereferenceable(49) %13, i32 noundef %14, i64 noundef %15)
  store ptr getelementptr inbounds inrange(-16, 32) ({ [6 x ptr] }, ptr @_ZTVN7rocksdb21ZSTDStreamingCompressE, i32 0, i32 0, i32 2), ptr %12, align 8, !tbaa !17
  %16 = invoke ptr @ZSTD_createCCtx()
          to label %17 unwind label %24

17:                                               ; preds = %4
  %18 = getelementptr inbounds nuw %"class.rocksdb::ZSTDStreamingCompress", ptr %12, i32 0, i32 1
  store ptr %16, ptr %18, align 8, !tbaa !19
  %19 = getelementptr inbounds nuw %"class.rocksdb::ZSTDStreamingCompress", ptr %12, i32 0, i32 1
  %20 = load ptr, ptr %19, align 8, !tbaa !19
  %21 = invoke i64 @ZSTD_CCtx_setParameter(ptr noundef %20, i32 noundef 201, i32 noundef 1)
          to label %22 unwind label %24

22:                                               ; preds = %17
  call void @llvm.lifetime.start.p0(i64 24, ptr %11) #13
  call void @llvm.memset.p0.i64(ptr align 8 %11, i8 0, i64 24, i1 false)
  %23 = getelementptr inbounds nuw %"class.rocksdb::ZSTDStreamingCompress", ptr %12, i32 0, i32 2
  call void @llvm.memcpy.p0.p0.i64(ptr align 8 %23, ptr align 8 %11, i64 24, i1 false), !tbaa.struct !26
  call void @llvm.lifetime.end.p0(i64 24, ptr %11) #13
  ret void

24:                                               ; preds = %17, %4
  %25 = landingpad { ptr, i32 }
          cleanup
  %26 = extractvalue { ptr, i32 } %25, 0
  store ptr %26, ptr %9, align 8
  %27 = extractvalue { ptr, i32 } %25, 1
  store i32 %27, ptr %10, align 4
  call void @_ZN7rocksdb17StreamingCompressD2Ev(ptr noundef nonnull align 8 dereferenceable(88) %12) #13
  br label %28

28:                                               ; preds = %24
  %29 = load ptr, ptr %9, align 8
  %30 = load i32, ptr %10, align 4
  %31 = insertvalue { ptr, i32 } poison, ptr %29, 0
  %32 = insertvalue { ptr, i32 } %31, i32 %30, 1
  resume { ptr, i32 } %32
}

; Function Attrs: inlinehint mustprogress nounwind uwtable
define linkonce_odr noundef zeroext i1 @_ZN7rocksdb24ZSTD_Streaming_SupportedEv() #1 comdat {
  ret i1 true
}

; Function Attrs: mustprogress uwtable
define noundef ptr @_ZN7rocksdb17StreamingCompress6CreateENS_15CompressionTypeERKNS_18CompressionOptionsEjm(i8 noundef zeroext %0, ptr noundef nonnull align 8 dereferenceable(49) %1, i32 noundef %2, i64 noundef %3) #0 align 2 personality ptr @__gxx_personality_v0 {
  %5 = alloca ptr, align 8
  %6 = alloca i8, align 1
  %7 = alloca ptr, align 8
  %8 = alloca i32, align 4
  %9 = alloca i64, align 8
  %10 = alloca ptr, align 8
  %11 = alloca i32, align 4
  store i8 %0, ptr %6, align 1, !tbaa !4
  store ptr %1, ptr %7, align 8, !tbaa !8
  store i32 %2, ptr %8, align 4, !tbaa !11
  store i64 %3, ptr %9, align 8, !tbaa !13
  %12 = load i8, ptr %6, align 1, !tbaa !4
  %13 = zext i8 %12 to i32
  switch i32 %13, label %27 [
    i32 7, label %14
  ]

14:                                               ; preds = %4
  %15 = call noundef zeroext i1 @_ZN7rocksdb24ZSTD_Streaming_SupportedEv()
  br i1 %15, label %17, label %16

16:                                               ; preds = %14
  store ptr null, ptr %5, align 8
  br label %28

17:                                               ; preds = %14
  %18 = call noalias noundef nonnull ptr @_Znwm(i64 noundef 120) #11
  %19 = load ptr, ptr %7, align 8, !tbaa !8
  %20 = load i32, ptr %8, align 4, !tbaa !11
  %21 = load i64, ptr %9, align 8, !tbaa !13
  invoke void @_ZN7rocksdb21ZSTDStreamingCompressC2ERKNS_18CompressionOptionsEjm(ptr noundef nonnull align 8 dereferenceable(120) %18, ptr noundef nonnull align 8 dereferenceable(49) %19, i32 noundef %20, i64 noundef %21)
          to label %22 unwind label %23

22:                                               ; preds = %17
  store ptr %18, ptr %5, align 8
  br label %28

23:                                               ; preds = %17
  %24 = landingpad { ptr, i32 }
          cleanup
  %25 = extractvalue { ptr, i32 } %24, 0
  store ptr %25, ptr %10, align 8
  %26 = extractvalue { ptr, i32 } %24, 1
  store i32 %26, ptr %11, align 4
  call void @_ZdlPvm(ptr noundef %18, i64 noundef 120) #12
  br label %30

27:                                               ; preds = %4
  store ptr null, ptr %5, align 8
  br label %28

28:                                               ; preds = %27, %22, %16
  %29 = load ptr, ptr %5, align 8
  ret ptr %29

30:                                               ; preds = %23
  %31 = load ptr, ptr %10, align 8
  %32 = load i32, ptr %11, align 4
  %33 = insertvalue { ptr, i32 } poison, ptr %31, 0
  %34 = insertvalue { ptr, i32 } %33, i32 %32, 1
  resume { ptr, i32 } %34
}