; Function Attrs: mustprogress uwtable
define noundef ptr @_ZN7rocksdb17StreamingCompress6CreateENS_15CompressionTypeERKNS_18CompressionOptionsEjm(i8 noundef zeroext %0, ptr noundef nonnull readonly align 8 captures(none) dereferenceable(49) %1, i32 noundef %2, i64 noundef %3) local_unnamed_addr #0 align 2 personality ptr @__gxx_personality_v0 {
  %cond = icmp eq i8 %0, 7
  br i1 %cond, label %5, label %17

5:                                                ; preds = %4
  %6 = tail call noalias noundef nonnull dereferenceable(120) ptr @_Znwm(i64 noundef 120) #10
  %7 = getelementptr inbounds nuw i8, ptr %6, i64 8
  store i8 7, ptr %7, align 8, !tbaa !4
  %8 = getelementptr inbounds nuw i8, ptr %6, i64 16
  tail call void @llvm.memcpy.p0.p0.i64(ptr noundef nonnull align 8 dereferenceable(56) %8, ptr noundef nonnull align 8 dereferenceable(56) %1, i64 56, i1 false), !tbaa.struct !13
  %9 = getelementptr inbounds nuw i8, ptr %6, i64 72
  store i32 %2, ptr %9, align 8, !tbaa !17
  %10 = getelementptr inbounds nuw i8, ptr %6, i64 80
  store i64 %3, ptr %10, align 8, !tbaa !18
  store ptr getelementptr inbounds nuw inrange(-16, 32) (i8, ptr @_ZTVN7rocksdb21ZSTDStreamingCompressE, i64 16), ptr %6, align 8, !tbaa !19
  %11 = invoke ptr @ZSTD_createCCtx()
          to label %.noexc unwind label %15

.noexc:                                           ; preds = %5
  %12 = getelementptr inbounds nuw i8, ptr %6, i64 88
  store ptr %11, ptr %12, align 8, !tbaa !21
  %13 = invoke i64 @ZSTD_CCtx_setParameter(ptr noundef %11, i32 noundef 201, i32 noundef 1)
          to label %_ZN7rocksdb21ZSTDStreamingCompressC2ERKNS_18CompressionOptionsEjm.exit unwind label %15

_ZN7rocksdb21ZSTDStreamingCompressC2ERKNS_18CompressionOptionsEjm.exit: ; preds = %.noexc
  %14 = getelementptr inbounds nuw i8, ptr %6, i64 96
  tail call void @llvm.memset.p0.i64(ptr noundef nonnull align 8 dereferenceable(24) %14, i8 0, i64 24, i1 false)
  br label %17

15:                                               ; preds = %.noexc, %5
  %16 = landingpad { ptr, i32 }
          cleanup
  tail call void @_ZdlPvm(ptr noundef nonnull %6, i64 noundef 120) #11
  resume { ptr, i32 } %16

17:                                               ; preds = %_ZN7rocksdb21ZSTDStreamingCompressC2ERKNS_18CompressionOptionsEjm.exit, %4
  %.0 = phi ptr [ %6, %_ZN7rocksdb21ZSTDStreamingCompressC2ERKNS_18CompressionOptionsEjm.exit ], [ null, %4 ]
  ret ptr %.0
}